target datalayout = "e-m:e-p270:32:32-p271:32:32-p272:64:64-i64:64-i128:128-f80:128-n8:16:32:64-S128"
target triple = "x86_64-pc-linux-gnu"

%struct.ma_allocation_callbacks = type { ptr, ptr, ptr, ptr }
%struct.ma_data_source_base = type { ptr, i64, i64, i64, i64, ptr, ptr, ptr, i32 }
%struct.ma_audio_buffer_ref = type { %struct.ma_data_source_base, i32, i32, i32, i64, i64, ptr }
%struct.ma_audio_buffer = type { %struct.ma_audio_buffer_ref, %struct.ma_allocation_callbacks, i32, [1 x i8] }

; Function Attrs: nounwind uwtable
define hidden i32 @ma_audio_buffer_ref_get_available_frames(ptr noundef %0, ptr noundef %1) #0 {
  %3 = alloca i32, align 4
  %4 = alloca ptr, align 8
  %5 = alloca ptr, align 8
  store ptr %0, ptr %4, align 8
  store ptr %1, ptr %5, align 8
  %6 = load ptr, ptr %5, align 8
  %7 = icmp eq ptr %6, null
  br i1 %7, label %8, label %9

8:                                                ; preds = %2
  store i32 -2, ptr %3, align 4
  br label %34

9:                                                ; preds = %2
  %10 = load ptr, ptr %5, align 8
  store i64 0, ptr %10, align 8
  %11 = load ptr, ptr %4, align 8
  %12 = icmp eq ptr %11, null
  br i1 %12, label %13, label %14

13:                                               ; preds = %9
  store i32 -2, ptr %3, align 4
  br label %34

14:                                               ; preds = %9
  %15 = load ptr, ptr %4, align 8
  %16 = getelementptr inbounds nuw %struct.ma_audio_buffer_ref, ptr %15, i32 0, i32 5
  %17 = load i64, ptr %16, align 8
  %18 = load ptr, ptr %4, align 8
  %19 = getelementptr inbounds nuw %struct.ma_audio_buffer_ref, ptr %18, i32 0, i32 4
  %20 = load i64, ptr %19, align 8
  %21 = icmp ule i64 %17, %20
  br i1 %21, label %22, label %24

22:                                               ; preds = %14
  %23 = load ptr, ptr %5, align 8
  store i64 0, ptr %23, align 8
  br label %33

24:                                               ; preds = %14
  %25 = load ptr, ptr %4, align 8
  %26 = getelementptr inbounds nuw %struct.ma_audio_buffer_ref, ptr %25, i32 0, i32 5
  %27 = load i64, ptr %26, align 8
  %28 = load ptr, ptr %4, align 8
  %29 = getelementptr inbounds nuw %struct.ma_audio_buffer_ref, ptr %28, i32 0, i32 4
  %30 = load i64, ptr %29, align 8
  %31 = sub i64 %27, %30
  %32 = load ptr, ptr %5, align 8
  store i64 %31, ptr %32, align 8
  br label %33

33:                                               ; preds = %24, %22
  store i32 0, ptr %3, align 4
  br label %34

34:                                               ; preds = %33, %13, %8
  %35 = load i32, ptr %3, align 4
  ret i32 %35
}

; Function Attrs: nounwind uwtable
define hidden i32 @ma_audio_buffer_get_available_frames(ptr noundef %0, ptr noundef %1) #0 {
  %3 = alloca i32, align 4
  %4 = alloca ptr, align 8
  %5 = alloca ptr, align 8
  store ptr %0, ptr %4, align 8
  store ptr %1, ptr %5, align 8
  %6 = load ptr, ptr %5, align 8
  %7 = icmp eq ptr %6, null
  br i1 %7, label %8, label %9

8:                                                ; preds = %2
  store i32 -2, ptr %3, align 4
  br label %19

9:                                                ; preds = %2
  %10 = load ptr, ptr %5, align 8
  store i64 0, ptr %10, align 8
  %11 = load ptr, ptr %4, align 8
  %12 = icmp eq ptr %11, null
  br i1 %12, label %13, label %14

13:                                               ; preds = %9
  store i32 -2, ptr %3, align 4
  br label %19

14:                                               ; preds = %9
  %15 = load ptr, ptr %4, align 8
  %16 = getelementptr inbounds nuw %struct.ma_audio_buffer, ptr %15, i32 0, i32 0
  %17 = load ptr, ptr %5, align 8
  %18 = call i32 @ma_audio_buffer_ref_get_available_frames(ptr noundef %16, ptr noundef %17)
  store i32 %18, ptr %3, align 4
  br label %19

19:                                               ; preds = %14, %13, %8
  %20 = load i32, ptr %3, align 4
  ret i32 %20
}