; Function Attrs: mustprogress nofree norecurse nosync nounwind willreturn memory(argmem: readwrite) uwtable
define hidden range(i32 -2, 1) i32 @ma_audio_buffer_get_available_frames(ptr noundef readonly captures(address_is_null) %0, ptr noundef writeonly captures(address_is_null) %1) local_unnamed_addr #18 {
  %3 = icmp eq ptr %1, null
  br i1 %3, label %10, label %4

4:                                                ; preds = %2
  store i64 0, ptr %1, align 8
  %5 = icmp eq ptr %0, null
  br i1 %5, label %10, label %ma_audio_buffer_ref_get_available_frames.exit

ma_audio_buffer_ref_get_available_frames.exit:    ; preds = %4
  %6 = getelementptr inbounds nuw i8, ptr %0, i64 96
  %7 = load i64, ptr %6, align 8
  %8 = getelementptr inbounds nuw i8, ptr %0, i64 88
  %9 = load i64, ptr %8, align 8
  %storemerge.i = tail call i64 @llvm.usub.sat.i64(i64 %7, i64 %9)
  store i64 %storemerge.i, ptr %1, align 8
  br label %10

10:                                               ; preds = %4, %2, %ma_audio_buffer_ref_get_available_frames.exit
  %.0 = phi i32 [ 0, %ma_audio_buffer_ref_get_available_frames.exit ], [ -2, %2 ], [ -2, %4 ]
  ret i32 %.0
}